target datalayout = "e-m:e-p270:32:32-p271:32:32-p272:64:64-i64:64-i128:128-f80:128-n8:16:32:64-S128"
target triple = "x86_64-pc-linux-gnu"

%"struct.rocksdb::IOStatsContext" = type <{ i64, i64, i64, i64, i64, i64, i64, i64, i64, i64, i64, i64, i64, %"struct.rocksdb::FileIOByTemperature", i8, [7 x i8] }>
%"struct.rocksdb::FileIOByTemperature" = type { i64, i64, i64, i64, i64, i64 }
%"struct.rocksdb::DBImpl::FlushThreadArg" = type { ptr, i32 }

@_ZN7rocksdb15iostats_contextE = external thread_local global %"struct.rocksdb::IOStatsContext", align 8

; Function Attrs: inlinehint mustprogress nounwind uwtable
define linkonce_odr noundef ptr @_ZN7rocksdb22static_cast_with_checkINS_6DBImplES1_EEPT_PT0_(ptr noundef %0) #1 comdat {
  %2 = alloca ptr, align 8
  %3 = alloca ptr, align 8
  store ptr %0, ptr %2, align 8, !tbaa !52
  call void @llvm.lifetime.start.p0(i64 8, ptr %3) #5
  %4 = load ptr, ptr %2, align 8, !tbaa !52
  store ptr %4, ptr %3, align 8, !tbaa !52
  %5 = load ptr, ptr %3, align 8, !tbaa !52
  call void @llvm.lifetime.end.p0(i64 8, ptr %3) #5
  ret ptr %5
}

; Function Attrs: uwtable
define linkonce_odr hidden noundef ptr @_ZTWN7rocksdb15iostats_contextE() #14 comdat {
  %1 = icmp ne ptr @_ZTHN7rocksdb15iostats_contextE, null
  br i1 %1, label %2, label %3

2:                                                ; preds = %0
  call void @_ZTHN7rocksdb15iostats_contextE()
  br label %3

3:                                                ; preds = %2, %0
  %4 = call align 8 ptr @llvm.threadlocal.address.p0(ptr align 8 @_ZN7rocksdb15iostats_contextE)
  ret ptr %4
}

; Function Attrs: mustprogress uwtable
define void @_ZN7rocksdb6DBImpl11BGWorkFlushEPv(ptr noundef %0) #6 align 2 {
  %2 = alloca ptr, align 8
  %3 = alloca %"struct.rocksdb::DBImpl::FlushThreadArg", align 8
  store ptr %0, ptr %2, align 8, !tbaa !36
  call void @llvm.lifetime.start.p0(i64 16, ptr %3) #5
  %4 = load ptr, ptr %2, align 8, !tbaa !36
  call void @llvm.memcpy.p0.p0.i64(ptr align 8 %3, ptr align 8 %4, i64 16, i1 false), !tbaa.struct !1788
  %5 = load ptr, ptr %2, align 8, !tbaa !36
  %6 = icmp eq ptr %5, null
  br i1 %6, label %8, label %7

7:                                                ; preds = %1
  call void @_ZdlPvm(ptr noundef %5, i64 noundef 16) #28
  br label %8

8:                                                ; preds = %7, %1
  %9 = getelementptr inbounds nuw %"struct.rocksdb::DBImpl::FlushThreadArg", ptr %3, i32 0, i32 1
  %10 = load i32, ptr %9, align 8, !tbaa !1382
  %11 = zext i32 %10 to i64
  %12 = call ptr @_ZTWN7rocksdb15iostats_contextE()
  %13 = getelementptr inbounds nuw %"struct.rocksdb::IOStatsContext", ptr %12, i32 0, i32 0
  store i64 %11, ptr %13, align 8, !tbaa !1621
  %14 = getelementptr inbounds nuw %"struct.rocksdb::DBImpl::FlushThreadArg", ptr %3, i32 0, i32 0
  %15 = load ptr, ptr %14, align 8, !tbaa !1380
  %16 = call noundef ptr @_ZN7rocksdb22static_cast_with_checkINS_6DBImplES1_EEPT_PT0_(ptr noundef %15)
  %17 = getelementptr inbounds nuw %"struct.rocksdb::DBImpl::FlushThreadArg", ptr %3, i32 0, i32 1
  %18 = load i32, ptr %17, align 8, !tbaa !1382
  call void @_ZN7rocksdb6DBImpl19BackgroundCallFlushENS_3Env8PriorityE(ptr noundef nonnull align 64 dereferenceable(6868) %16, i32 noundef %18)
  call void @llvm.lifetime.end.p0(i64 16, ptr %3) #5
  ret void
}