; Function Attrs: uwtable
define void @_ZN7rocksdb6DBImpl11BGWorkFlushEPv(ptr noundef %0) #15 align 2 {
  %.sroa.0.0.copyload = load ptr, ptr %0, align 8, !tbaa !1761
  %.sroa.4.0..sroa_idx = getelementptr inbounds nuw i8, ptr %0, i64 8
  %.sroa.4.0.copyload = load i32, ptr %.sroa.4.0..sroa_idx, align 8, !tbaa !1882
  tail call void @_ZdlPvm(ptr noundef %0, i64 noundef 16) #30
  %.not.i = icmp eq ptr @_ZTHN7rocksdb15iostats_contextE, null
  br i1 %.not.i, label %_ZTWN7rocksdb15iostats_contextE.exit, label %2

2:                                                ; preds = %1
  tail call void @_ZTHN7rocksdb15iostats_contextE()
  br label %_ZTWN7rocksdb15iostats_contextE.exit

_ZTWN7rocksdb15iostats_contextE.exit:             ; preds = %1, %2
  %3 = zext i32 %.sroa.4.0.copyload to i64
  %4 = tail call noundef align 8 ptr @llvm.threadlocal.address.p0(ptr align 8 @_ZN7rocksdb15iostats_contextE)
  store i64 %3, ptr %4, align 8, !tbaa !1763
  tail call void @_ZN7rocksdb6DBImpl19BackgroundCallFlushENS_3Env8PriorityE(ptr noundef nonnull align 64 dereferenceable(6868) %.sroa.0.0.copyload, i32 noundef %.sroa.4.0.copyload)
  ret void
}